; Function Attrs: mustprogress uwtable
define internal fastcc void @_ZZN8facebook5velox12_GLOBAL__N_110castToJsonILNS0_8TypeKindE1ETnNSt9enable_ifIXsr10TypeTraitsIXT_EEE15isPrimitiveTypeEiE4typeELi0EEEvRKNS0_10BaseVectorERNS0_4exec7EvalCtxERKNS0_17SelectivityVectorERNS0_10FlatVectorINS0_10StringViewEEEbENKUlT_E_clIiEEDaSK_(ptr nocapture noundef nonnull readonly align 8 dereferenceable(32) %this, i32 noundef %row) unnamed_addr #0 align 2 {
entry:
  %agg.tmp3 = alloca %"struct.facebook::velox::StringView", align 8
  %0 = load ptr, ptr %this, align 8
  %1 = load ptr, ptr %0, align 8
  %vtable = load ptr, ptr %1, align 8
  %vfn = getelementptr inbounds i8, ptr %vtable, i64 32
  %2 = load ptr, ptr %vfn, align 8
  %call = tail call noundef zeroext i1 %2(ptr noundef nonnull align 8 dereferenceable(99) %1, i32 noundef %row)
  br i1 %call, label %if.then, label %if.else

if.then:                                          ; preds = %entry
  %3 = getelementptr inbounds i8, ptr %this, i64 8
  %4 = load ptr, ptr %3, align 8
  tail call void @_ZN8facebook5velox10FlatVectorINS0_10StringViewEE3setEiS2_(ptr noundef nonnull align 8 dereferenceable(280) %4, i32 noundef %row, i64 7812748568887820292, ptr null)
  br label %if.end

if.else:                                          ; preds = %entry
  %5 = getelementptr inbounds i8, ptr %this, i64 16
  %6 = load ptr, ptr %5, align 8
  tail call void @_ZNSt7__cxx1112basic_stringIcSt11char_traitsIcESaIcEE5clearEv(ptr noundef nonnull align 8 dereferenceable(32) %6) #33
  %7 = load ptr, ptr %this, align 8
  %8 = load ptr, ptr %7, align 8
  %9 = load ptr, ptr %5, align 8
  %10 = getelementptr inbounds i8, ptr %this, i64 24
  %11 = load ptr, ptr %10, align 8
  %type_.i = getelementptr inbounds i8, ptr %11, i64 8
  tail call fastcc void @_ZN8facebook5velox12_GLOBAL__N_117generateJsonTypedIaLb0EEEvRKNS0_12SimpleVectorIT_EEiRNSt7__cxx1112basic_stringIcSt11char_traitsIcESaIcEEERKSt10shared_ptrIKNS0_4TypeEE(ptr noundef nonnull align 8 dereferenceable(112) %8, i32 noundef %row, ptr noundef nonnull align 8 dereferenceable(32) %9, ptr noundef nonnull align 8 dereferenceable(16) %type_.i)
  %12 = getelementptr inbounds i8, ptr %this, i64 8
  %13 = load ptr, ptr %12, align 8
  %14 = load ptr, ptr %5, align 8
  %call.i4 = tail call noundef ptr @_ZNKSt7__cxx1112basic_stringIcSt11char_traitsIcESaIcEE4dataEv(ptr noundef nonnull align 8 dereferenceable(32) %14) #33
  %call2.i = tail call noundef i64 @_ZNKSt7__cxx1112basic_stringIcSt11char_traitsIcESaIcEE4sizeEv(ptr noundef nonnull align 8 dereferenceable(32) %14) #33
  %conv.i5 = trunc i64 %call2.i to i32
  store i32 %conv.i5, ptr %agg.tmp3, align 8
  %cmp.i.i6 = icmp slt i32 %conv.i5, 0
  br i1 %cmp.i.i6, label %if.then.i.i17, label %if.end.i.i7

if.then.i.i17:                                    ; preds = %if.else
  tail call void @llvm.trap()
  unreachable

if.end.i.i7:                                      ; preds = %if.else
  %cmp.i.i.i.i8 = icmp ult i32 %conv.i5, 13
  br i1 %cmp.i.i.i.i8, label %if.then2.i.i12, label %if.else.i.i10

if.then2.i.i12:                                   ; preds = %if.end.i.i7
  %agg.tmp3.4.agg.tmp3.4.agg.tmp3.4.prefix_.i.i9.sroa_idx26 = getelementptr inbounds i8, ptr %agg.tmp3, i64 4
  store i32 0, ptr %agg.tmp3.4.agg.tmp3.4.agg.tmp3.4.prefix_.i.i9.sroa_idx26, align 4
  %cmp4.i.i13 = icmp eq i32 %conv.i5, 0
  br i1 %cmp4.i.i13, label %_ZN8facebook5velox10StringViewC2ERKNSt7__cxx1112basic_stringIcSt11char_traitsIcESaIcEEE.exit, label %if.end6.i.i14

if.end6.i.i14:                                    ; preds = %if.then2.i.i12
  %agg.tmp3.8.agg.tmp3.8.agg.tmp3.8.value_7.i.i15.sroa_idx = getelementptr inbounds i8, ptr %agg.tmp3, i64 8
  store ptr null, ptr %agg.tmp3.8.agg.tmp3.8.agg.tmp3.8.value_7.i.i15.sroa_idx, align 8
  %conv.i.i16 = and i64 %call2.i, 15
  %agg.tmp3.4.agg.tmp3.4.agg.tmp3.4.prefix_.i.i9.sroa_idx = getelementptr inbounds i8, ptr %agg.tmp3, i64 4
  call void @llvm.memcpy.p0.p0.i64(ptr nonnull align 4 %agg.tmp3.4.agg.tmp3.4.agg.tmp3.4.prefix_.i.i9.sroa_idx, ptr align 1 %call.i4, i64 %conv.i.i16, i1 false)
  %agg.tmp3.8.agg.tmp3.8.agg.tmp3.8.value_7.i.i15.sroa_idx27 = getelementptr inbounds i8, ptr %agg.tmp3, i64 8
  %agg.tmp3.8.agg.tmp3.8.agg.tmp3.8..pre = load ptr, ptr %agg.tmp3.8.agg.tmp3.8.agg.tmp3.8.value_7.i.i15.sroa_idx27, align 8
  br label %_ZN8facebook5velox10StringViewC2ERKNSt7__cxx1112basic_stringIcSt11char_traitsIcESaIcEEE.exit

if.else.i.i10:                                    ; preds = %if.end.i.i7
  %15 = load i32, ptr %call.i4, align 1
  %agg.tmp3.4.agg.tmp3.4.agg.tmp3.4.prefix_.i.i9.sroa_idx25 = getelementptr inbounds i8, ptr %agg.tmp3, i64 4
  store i32 %15, ptr %agg.tmp3.4.agg.tmp3.4.agg.tmp3.4.prefix_.i.i9.sroa_idx25, align 4
  br label %_ZN8facebook5velox10StringViewC2ERKNSt7__cxx1112basic_stringIcSt11char_traitsIcESaIcEEE.exit

_ZN8facebook5velox10StringViewC2ERKNSt7__cxx1112basic_stringIcSt11char_traitsIcESaIcEEE.exit: ; preds = %if.then2.i.i12, %if.end6.i.i14, %if.else.i.i10
  %agg.tmp3.8.agg.tmp3.8. = phi ptr [ undef, %if.then2.i.i12 ], [ %agg.tmp3.8.agg.tmp3.8.agg.tmp3.8..pre, %if.end6.i.i14 ], [ %call.i4, %if.else.i.i10 ]
  %agg.tmp3.0.agg.tmp3.0.agg.tmp3.0. = load i64, ptr %agg.tmp3, align 8
  tail call void @_ZN8facebook5velox10FlatVectorINS0_10StringViewEE3setEiS2_(ptr noundef nonnull align 8 dereferenceable(280) %13, i32 noundef %row, i64 %agg.tmp3.0.agg.tmp3.0.agg.tmp3.0., ptr %agg.tmp3.8.agg.tmp3.8.)
  br label %if.end

if.end:                                           ; preds = %_ZN8facebook5velox10StringViewC2ERKNSt7__cxx1112basic_stringIcSt11char_traitsIcESaIcEEE.exit, %if.then
  ret void
}